; Function Attrs: mustprogress uwtable
define void @_ZN8WasmEdge3AOT5Cache5clearENS1_12StorageScopeESt17basic_string_viewIcSt11char_traitsIcEE(i32 noundef %0, i64 %1, ptr %2) local_unnamed_addr #0 align 2 personality ptr @__gxx_personality_v0 {
  %4 = alloca %"class.std::basic_string_view", align 8
  %5 = alloca %"class.std::filesystem::__cxx11::path", align 8
  %6 = alloca %"class.std::filesystem::__cxx11::path", align 8
  %7 = alloca %"class.std::error_code", align 8
  store i64 %1, ptr %4, align 8
  %8 = getelementptr inbounds nuw i8, ptr %4, i64 8
  store ptr %2, ptr %8, align 8
  call fastcc void @_ZN8WasmEdge3AOT12_GLOBAL__N_17getRootB5cxx11ENS0_5Cache12StorageScopeE(ptr dead_on_unwind noalias writable align 8 %5, i32 noundef %0)
  %9 = icmp eq i64 %1, 0
  br i1 %9, label %20, label %10

10:                                               ; preds = %3
  invoke void @_ZNSt10filesystem7__cxx114pathC2ISt17basic_string_viewIcSt11char_traitsIcEES1_EERKT_NS1_6formatE(ptr noundef nonnull align 8 dereferenceable(40) %6, ptr noundef nonnull align 8 dereferenceable(16) %4, i8 noundef zeroext 2)
          to label %_ZNSt10filesystem7__cxx116u8pathISt17basic_string_viewIcSt11char_traitsIcEENS0_4pathEcEES6_RKT_.exit unwind label %16

_ZNSt10filesystem7__cxx116u8pathISt17basic_string_viewIcSt11char_traitsIcEENS0_4pathEcEES6_RKT_.exit: ; preds = %10
  %11 = invoke noundef nonnull align 8 dereferenceable(40) ptr @_ZNSt10filesystem7__cxx114pathdVERKS1_(ptr noundef nonnull align 8 dereferenceable(40) %5, ptr noundef nonnull align 8 dereferenceable(40) %6)
          to label %12 unwind label %18

12:                                               ; preds = %_ZNSt10filesystem7__cxx116u8pathISt17basic_string_viewIcSt11char_traitsIcEENS0_4pathEcEES6_RKT_.exit
  %13 = getelementptr inbounds nuw i8, ptr %6, i64 32
  %14 = load ptr, ptr %13, align 8
  %.not.i.i.i = icmp eq ptr %14, null
  br i1 %.not.i.i.i, label %_ZNSt10filesystem7__cxx114pathD2Ev.exit, label %15

15:                                               ; preds = %12
  call void @_ZNKSt10filesystem7__cxx114path5_List13_Impl_deleterclEPNS2_5_ImplE(ptr noundef nonnull align 8 dereferenceable(8) %13, ptr noundef nonnull %14) #8
  br label %_ZNSt10filesystem7__cxx114pathD2Ev.exit

_ZNSt10filesystem7__cxx114pathD2Ev.exit:          ; preds = %12, %15
  store ptr null, ptr %13, align 8
  call void @_ZNSt7__cxx1112basic_stringIcSt11char_traitsIcESaIcEED1Ev(ptr noundef nonnull align 8 dereferenceable(40) %6) #8
  br label %20

16:                                               ; preds = %10, %20
  %17 = landingpad { ptr, i32 }
          cleanup
  br label %28

18:                                               ; preds = %_ZNSt10filesystem7__cxx116u8pathISt17basic_string_viewIcSt11char_traitsIcEENS0_4pathEcEES6_RKT_.exit
  %19 = landingpad { ptr, i32 }
          cleanup
  call void @_ZNSt10filesystem7__cxx114pathD2Ev(ptr noundef nonnull align 8 dereferenceable(40) %6) #8
  br label %28

20:                                               ; preds = %_ZNSt10filesystem7__cxx114pathD2Ev.exit, %3
  store i32 0, ptr %7, align 8
  %21 = getelementptr inbounds nuw i8, ptr %7, i64 8
  %22 = tail call noundef nonnull align 8 dereferenceable(8) ptr @_ZNSt3_V215system_categoryEv() #10
  store ptr %22, ptr %21, align 8
  %23 = invoke noundef i64 @_ZNSt10filesystem10remove_allERKNS_7__cxx114pathERSt10error_code(ptr noundef nonnull align 8 dereferenceable(40) %5, ptr noundef nonnull align 8 dereferenceable(16) %7)
          to label %24 unwind label %16

24:                                               ; preds = %20
  %25 = getelementptr inbounds nuw i8, ptr %5, i64 32
  %26 = load ptr, ptr %25, align 8
  %.not.i.i.i4 = icmp eq ptr %26, null
  br i1 %.not.i.i.i4, label %_ZNSt10filesystem7__cxx114pathD2Ev.exit5, label %27

27:                                               ; preds = %24
  call void @_ZNKSt10filesystem7__cxx114path5_List13_Impl_deleterclEPNS2_5_ImplE(ptr noundef nonnull align 8 dereferenceable(8) %25, ptr noundef nonnull %26) #8
  br label %_ZNSt10filesystem7__cxx114pathD2Ev.exit5

_ZNSt10filesystem7__cxx114pathD2Ev.exit5:         ; preds = %24, %27
  store ptr null, ptr %25, align 8
  call void @_ZNSt7__cxx1112basic_stringIcSt11char_traitsIcESaIcEED1Ev(ptr noundef nonnull align 8 dereferenceable(40) %5) #8
  ret void

28:                                               ; preds = %18, %16
  %.pn = phi { ptr, i32 } [ %17, %16 ], [ %19, %18 ]
  call void @_ZNSt10filesystem7__cxx114pathD2Ev(ptr noundef nonnull align 8 dereferenceable(40) %5) #8
  resume { ptr, i32 } %.pn
}